target datalayout = "e-m:e-p270:32:32-p271:32:32-p272:64:64-i64:64-i128:128-f80:128-n8:16:32:64-S128"
target triple = "x86_64-pc-linux-gnu"

%struct.expert_field = type { i32, i32 }
%struct._packet_info = type { ptr, ptr, i32, i32, %struct.nstime_t, %struct.nstime_t, %struct.nstime_t, i8, ptr, ptr, ptr, ptr, %struct._address, %struct._address, %struct._address, %struct._address, %struct._address, %struct._address, i32, ptr, i8, [3 x i8], %struct.anon, i32, i32, i32, i32, ptr, i8, ptr, ptr, i16, i16, i32, i32, i16, i32, i32, ptr, ptr, ptr, i8, i8, i16, i16, i16, i32, i16, i16, ptr, ptr, ptr, ptr, ptr, i32, i32 }
%struct.nstime_t = type { i64, i32 }
%struct._address = type { i32, i32, ptr, ptr }
%struct.anon = type { i8, [3 x i8] }

@ei_nas_eps_extraneous_data = internal global %struct.expert_field zeroinitializer, align 4
@ei_nas_eps_missing_mandatory_elemen = internal global %struct.expert_field zeroinitializer, align 4
@.str.952 = private unnamed_addr constant [1 x i8] zeroinitializer, align 1
@.str.959 = private unnamed_addr constant [62 x i8] c"Missing Mandatory element %s%s, rest of dissection is suspect\00", align 1
@.str.994 = private unnamed_addr constant [15 x i8] c" - T3448 value\00", align 1
@.str.997 = private unnamed_addr constant [75 x i8] c" - Forbidden TAI(s) for the list of \22forbidden tracking areas for roaming\22\00", align 1
@.str.998 = private unnamed_addr constant [97 x i8] c" - Forbidden TAI(s) for the list of \22forbidden tracking areas for regional provision of service\22\00", align 1
@.str.999 = private unnamed_addr constant [15 x i8] c" - T3346 value\00", align 1
@.str.1011 = private unnamed_addr constant [15 x i8] c" - T3442 value\00", align 1

; Function Attrs: null_pointer_is_valid sspstrong uwtable
define internal void @nas_emm_serv_rej(ptr noundef %0, ptr noundef %1, ptr noundef %2, i32 noundef %3, i32 noundef %4) #1 {
  %6 = alloca ptr, align 8
  %7 = alloca ptr, align 8
  %8 = alloca ptr, align 8
  %9 = alloca i32, align 4
  %10 = alloca i32, align 4
  %11 = alloca i32, align 4
  %12 = alloca i32, align 4
  %13 = alloca i32, align 4
  %14 = alloca i32, align 4
  store ptr %0, ptr %6, align 8
  store ptr %1, ptr %7, align 8
  store ptr %2, ptr %8, align 8
  store i32 %3, ptr %9, align 4
  store i32 %4, ptr %10, align 4
  call void @llvm.lifetime.start.p0(i64 4, ptr %11) #10
  call void @llvm.lifetime.start.p0(i64 4, ptr %12) #10
  call void @llvm.lifetime.start.p0(i64 4, ptr %13) #10
  %15 = load i32, ptr %9, align 4
  store i32 %15, ptr %11, align 4
  %16 = load i32, ptr %10, align 4
  store i32 %16, ptr %13, align 4
  %17 = load ptr, ptr %8, align 8
  %18 = getelementptr inbounds nuw %struct._packet_info, ptr %17, i32 0, i32 46
  store i32 1, ptr %18, align 8
  %19 = load i32, ptr %13, align 4
  %20 = icmp sgt i32 %19, 0
  br i1 %20, label %21, label %36

21:                                               ; preds = %5
  %22 = load ptr, ptr %6, align 8
  %23 = load ptr, ptr %7, align 8
  %24 = load ptr, ptr %8, align 8
  %25 = load i32, ptr %11, align 4
  %26 = call zeroext i16 @elem_v(ptr noundef %22, ptr noundef %23, ptr noundef %24, i32 noundef 10, i32 noundef 11, i32 noundef %25, ptr noundef null)
  %27 = zext i16 %26 to i32
  store i32 %27, ptr %12, align 4
  %28 = icmp ugt i32 %27, 0
  br i1 %28, label %29, label %36

29:                                               ; preds = %21
  %30 = load i32, ptr %12, align 4
  %31 = load i32, ptr %11, align 4
  %32 = add i32 %31, %30
  store i32 %32, ptr %11, align 4
  %33 = load i32, ptr %12, align 4
  %34 = load i32, ptr %13, align 4
  %35 = sub i32 %34, %33
  store i32 %35, ptr %13, align 4
  br label %43

36:                                               ; preds = %21, %5
  %37 = load ptr, ptr %7, align 8
  %38 = load ptr, ptr %8, align 8
  %39 = load ptr, ptr %6, align 8
  %40 = load i32, ptr %11, align 4
  %41 = call ptr @get_gsm_a_msg_string(i32 noundef 10, i32 noundef 11)
  %42 = call ptr (ptr, ptr, ptr, ptr, i32, i32, ptr, ...) @proto_tree_add_expert_format(ptr noundef %37, ptr noundef %38, ptr noundef @ei_nas_eps_missing_mandatory_elemen, ptr noundef %39, i32 noundef %40, i32 noundef 0, ptr noundef @.str.959, ptr noundef %41, ptr noundef @.str.952)
  br label %43

43:                                               ; preds = %36, %29
  %44 = load i32, ptr %13, align 4
  %45 = icmp sle i32 %44, 0
  br i1 %45, label %46, label %47

46:                                               ; preds = %43
  store i32 1, ptr %14, align 4
  br label %158

47:                                               ; preds = %43
  %48 = load ptr, ptr %6, align 8
  %49 = load ptr, ptr %7, align 8
  %50 = load ptr, ptr %8, align 8
  %51 = load i32, ptr %11, align 4
  %52 = call zeroext i16 @elem_tv(ptr noundef %48, ptr noundef %49, ptr noundef %50, i8 noundef zeroext 91, i32 noundef 5, i32 noundef 69, i32 noundef %51, ptr noundef @.str.1011)
  %53 = zext i16 %52 to i32
  store i32 %53, ptr %12, align 4
  %54 = icmp ugt i32 %53, 0
  br i1 %54, label %55, label %62

55:                                               ; preds = %47
  %56 = load i32, ptr %12, align 4
  %57 = load i32, ptr %11, align 4
  %58 = add i32 %57, %56
  store i32 %58, ptr %11, align 4
  %59 = load i32, ptr %12, align 4
  %60 = load i32, ptr %13, align 4
  %61 = sub i32 %60, %59
  store i32 %61, ptr %13, align 4
  br label %62

62:                                               ; preds = %55, %47
  %63 = load i32, ptr %13, align 4
  %64 = icmp sle i32 %63, 0
  br i1 %64, label %65, label %66

65:                                               ; preds = %62
  store i32 1, ptr %14, align 4
  br label %158

66:                                               ; preds = %62
  %67 = load ptr, ptr %6, align 8
  %68 = load ptr, ptr %7, align 8
  %69 = load ptr, ptr %8, align 8
  %70 = load i32, ptr %11, align 4
  %71 = load i32, ptr %13, align 4
  %72 = call zeroext i16 @elem_tlv(ptr noundef %67, ptr noundef %68, ptr noundef %69, i8 noundef zeroext 95, i32 noundef 5, i32 noundef 70, i32 noundef %70, i32 noundef %71, ptr noundef @.str.999)
  %73 = zext i16 %72 to i32
  store i32 %73, ptr %12, align 4
  %74 = icmp ugt i32 %73, 0
  br i1 %74, label %75, label %82

75:                                               ; preds = %66
  %76 = load i32, ptr %12, align 4
  %77 = load i32, ptr %11, align 4
  %78 = add i32 %77, %76
  store i32 %78, ptr %11, align 4
  %79 = load i32, ptr %12, align 4
  %80 = load i32, ptr %13, align 4
  %81 = sub i32 %80, %79
  store i32 %81, ptr %13, align 4
  br label %82

82:                                               ; preds = %75, %66
  %83 = load i32, ptr %13, align 4
  %84 = icmp sle i32 %83, 0
  br i1 %84, label %85, label %86

85:                                               ; preds = %82
  store i32 1, ptr %14, align 4
  br label %158

86:                                               ; preds = %82
  %87 = load ptr, ptr %6, align 8
  %88 = load ptr, ptr %7, align 8
  %89 = load ptr, ptr %8, align 8
  %90 = load i32, ptr %11, align 4
  %91 = load i32, ptr %13, align 4
  %92 = call zeroext i16 @elem_tlv(ptr noundef %87, ptr noundef %88, ptr noundef %89, i8 noundef zeroext 107, i32 noundef 5, i32 noundef 70, i32 noundef %90, i32 noundef %91, ptr noundef @.str.994)
  %93 = zext i16 %92 to i32
  store i32 %93, ptr %12, align 4
  %94 = icmp ugt i32 %93, 0
  br i1 %94, label %95, label %102

95:                                               ; preds = %86
  %96 = load i32, ptr %12, align 4
  %97 = load i32, ptr %11, align 4
  %98 = add i32 %97, %96
  store i32 %98, ptr %11, align 4
  %99 = load i32, ptr %12, align 4
  %100 = load i32, ptr %13, align 4
  %101 = sub i32 %100, %99
  store i32 %101, ptr %13, align 4
  br label %102

102:                                              ; preds = %95, %86
  %103 = load i32, ptr %13, align 4
  %104 = icmp sle i32 %103, 0
  br i1 %104, label %105, label %106

105:                                              ; preds = %102
  store i32 1, ptr %14, align 4
  br label %158

106:                                              ; preds = %102
  %107 = load ptr, ptr %6, align 8
  %108 = load ptr, ptr %7, align 8
  %109 = load ptr, ptr %8, align 8
  %110 = load i32, ptr %11, align 4
  %111 = load i32, ptr %13, align 4
  %112 = call zeroext i16 @elem_tlv(ptr noundef %107, ptr noundef %108, ptr noundef %109, i8 noundef zeroext 29, i32 noundef 10, i32 noundef 41, i32 noundef %110, i32 noundef %111, ptr noundef @.str.997)
  %113 = zext i16 %112 to i32
  store i32 %113, ptr %12, align 4
  %114 = icmp ugt i32 %113, 0
  br i1 %114, label %115, label %122

115:                                              ; preds = %106
  %116 = load i32, ptr %12, align 4
  %117 = load i32, ptr %11, align 4
  %118 = add i32 %117, %116
  store i32 %118, ptr %11, align 4
  %119 = load i32, ptr %12, align 4
  %120 = load i32, ptr %13, align 4
  %121 = sub i32 %120, %119
  store i32 %121, ptr %13, align 4
  br label %122

122:                                              ; preds = %115, %106
  %123 = load i32, ptr %13, align 4
  %124 = icmp sle i32 %123, 0
  br i1 %124, label %125, label %126

125:                                              ; preds = %122
  store i32 1, ptr %14, align 4
  br label %158

126:                                              ; preds = %122
  %127 = load ptr, ptr %6, align 8
  %128 = load ptr, ptr %7, align 8
  %129 = load ptr, ptr %8, align 8
  %130 = load i32, ptr %11, align 4
  %131 = load i32, ptr %13, align 4
  %132 = call zeroext i16 @elem_tlv(ptr noundef %127, ptr noundef %128, ptr noundef %129, i8 noundef zeroext 30, i32 noundef 10, i32 noundef 41, i32 noundef %130, i32 noundef %131, ptr noundef @.str.998)
  %133 = zext i16 %132 to i32
  store i32 %133, ptr %12, align 4
  %134 = icmp ugt i32 %133, 0
  br i1 %134, label %135, label %142

135:                                              ; preds = %126
  %136 = load i32, ptr %12, align 4
  %137 = load i32, ptr %11, align 4
  %138 = add i32 %137, %136
  store i32 %138, ptr %11, align 4
  %139 = load i32, ptr %12, align 4
  %140 = load i32, ptr %13, align 4
  %141 = sub i32 %140, %139
  store i32 %141, ptr %13, align 4
  br label %142

142:                                              ; preds = %135, %126
  %143 = load i32, ptr %13, align 4
  %144 = icmp ugt i32 %143, 0
  br i1 %144, label %145, label %157

145:                                              ; preds = %142
  %146 = load ptr, ptr %7, align 8
  %147 = load ptr, ptr %8, align 8
  %148 = load ptr, ptr %6, align 8
  %149 = load i32, ptr %11, align 4
  %150 = load i32, ptr %13, align 4
  %151 = sub i32 %150, 0
  %152 = call ptr @proto_tree_add_expert(ptr noundef %146, ptr noundef %147, ptr noundef @ei_nas_eps_extraneous_data, ptr noundef %148, i32 noundef %149, i32 noundef %151)
  %153 = load i32, ptr %13, align 4
  %154 = sub i32 %153, 0
  %155 = load i32, ptr %11, align 4
  %156 = add i32 %155, %154
  store i32 %156, ptr %11, align 4
  br label %157

157:                                              ; preds = %145, %142
  store i32 0, ptr %14, align 4
  br label %158

158:                                              ; preds = %157, %125, %105, %85, %65, %46
  call void @llvm.lifetime.end.p0(i64 4, ptr %13) #10
  call void @llvm.lifetime.end.p0(i64 4, ptr %12) #10
  call void @llvm.lifetime.end.p0(i64 4, ptr %11) #10
  %159 = load i32, ptr %14, align 4
  switch i32 %159, label %161 [
    i32 0, label %160
    i32 1, label %160
  ]

160:                                              ; preds = %158, %158
  ret void

161:                                              ; preds = %158
  unreachable
}